; Function Attrs: nounwind uwtable
define internal noundef ptr @sys_settrace(ptr readnone captures(none) %0, ptr noundef %1) #0 {
  %3 = tail call align 8 ptr @llvm.threadlocal.address.p0(ptr align 8 @_Py_tss_tstate)
  %4 = load ptr, ptr %3, align 8, !tbaa !92
  %5 = icmp eq ptr %1, @_Py_NoneStruct
  br i1 %5, label %6, label %9

6:                                                ; preds = %2
  %7 = tail call i32 @_PyEval_SetTrace(ptr noundef %4, ptr noundef null, ptr noundef null) #15
  %8 = icmp slt i32 %7, 0
  br i1 %8, label %13, label %12

9:                                                ; preds = %2
  %10 = tail call i32 @_PyEval_SetTrace(ptr noundef %4, ptr noundef nonnull @trace_trampoline, ptr noundef %1) #15
  %11 = icmp slt i32 %10, 0
  br i1 %11, label %13, label %12

12:                                               ; preds = %9, %6
  br label %13

13:                                               ; preds = %9, %6, %12
  %.0 = phi ptr [ @_Py_NoneStruct, %12 ], [ null, %6 ], [ null, %9 ]
  ret ptr %.0
}